target datalayout = "e-m:e-p270:32:32-p271:32:32-p272:64:64-i64:64-i128:128-f80:128-n8:16:32:64-S128"
target triple = "x86_64-pc-linux-gnu"

%struct.blake2s_md_data_st = type { %struct.blake2s_ctx_st, %struct.blake2s_param_st }
%struct.blake2s_ctx_st = type { [8 x i32], [2 x i32], [2 x i32], [64 x i8], i64, i64 }
%struct.blake2s_param_st = type { i8, i8, i8, i8, [4 x i8], [6 x i8], i8, i8, [8 x i8], [8 x i8] }

@.str.1 = private unnamed_addr constant [59 x i8] c"../openssl/providers/implementations/digests/blake2_prov.c\00", align 1
@__func__.blake2s256_internal_final = private unnamed_addr constant [26 x i8] c"blake2s256_internal_final\00", align 1

; Function Attrs: nounwind uwtable
define internal i32 @blake2s256_internal_final(ptr noundef %0, ptr noundef %1, ptr noundef %2, i64 noundef %3) #0 {
  %5 = alloca i32, align 4
  %6 = alloca ptr, align 8
  %7 = alloca ptr, align 8
  %8 = alloca ptr, align 8
  %9 = alloca i64, align 8
  %10 = alloca ptr, align 8
  %11 = alloca i32, align 4
  store ptr %0, ptr %6, align 8, !tbaa !3
  store ptr %1, ptr %7, align 8, !tbaa !23
  store ptr %2, ptr %8, align 8, !tbaa !24
  store i64 %3, ptr %9, align 8, !tbaa !22
  call void @llvm.lifetime.start.p0(i64 8, ptr %10) #5
  %12 = load ptr, ptr %6, align 8, !tbaa !3
  store ptr %12, ptr %10, align 8, !tbaa !9
  %13 = call i32 @ossl_prov_is_running()
  %14 = icmp ne i32 %13, 0
  br i1 %14, label %16, label %15

15:                                               ; preds = %4
  store i32 0, ptr %5, align 4
  store i32 1, ptr %11, align 4
  br label %35

16:                                               ; preds = %4
  %17 = load ptr, ptr %10, align 8, !tbaa !9
  %18 = getelementptr inbounds nuw %struct.blake2s_md_data_st, ptr %17, i32 0, i32 0
  %19 = getelementptr inbounds nuw %struct.blake2s_ctx_st, ptr %18, i32 0, i32 5
  %20 = load i64, ptr %19, align 8, !tbaa !26
  %21 = load ptr, ptr %8, align 8, !tbaa !24
  store i64 %20, ptr %21, align 8, !tbaa !22
  %22 = load i64, ptr %9, align 8, !tbaa !22
  %23 = icmp eq i64 %22, 0
  br i1 %23, label %24, label %25

24:                                               ; preds = %16
  store i32 1, ptr %5, align 4
  store i32 1, ptr %11, align 4
  br label %35

25:                                               ; preds = %16
  %26 = load i64, ptr %9, align 8, !tbaa !22
  %27 = load ptr, ptr %8, align 8, !tbaa !24
  %28 = load i64, ptr %27, align 8, !tbaa !22
  %29 = icmp ult i64 %26, %28
  br i1 %29, label %30, label %31

30:                                               ; preds = %25
  call void @ERR_new()
  call void @ERR_set_debug(ptr noundef @.str.1, i32 noundef 197, ptr noundef @__func__.blake2s256_internal_final)
  call void (i32, i32, ptr, ...) @ERR_set_error(i32 noundef 57, i32 noundef 218, ptr noundef null)
  store i32 0, ptr %5, align 4
  store i32 1, ptr %11, align 4
  br label %35

31:                                               ; preds = %25
  %32 = load ptr, ptr %7, align 8, !tbaa !23
  %33 = load ptr, ptr %6, align 8, !tbaa !3
  %34 = call i32 @ossl_blake2s_final(ptr noundef %32, ptr noundef %33)
  store i32 %34, ptr %5, align 4
  store i32 1, ptr %11, align 4
  br label %35

35:                                               ; preds = %31, %30, %24, %15
  call void @llvm.lifetime.end.p0(i64 8, ptr %10) #5
  %36 = load i32, ptr %5, align 4
  ret i32 %36
}